target datalayout = "e-m:e-p270:32:32-p271:32:32-p272:64:64-i64:64-i128:128-f80:128-n8:16:32:64-S128"
target triple = "x86_64-pc-linux-gnu"

%struct.SN_env = type { ptr, i32, i32, i32, i32, i32, ptr, ptr }

@a_14 = internal constant [1 x { i32, [4 x i8], ptr, i32, i32, ptr }] [{ i32, [4 x i8], ptr, i32, i32, ptr } { i32 2, [4 x i8] zeroinitializer, ptr @s_14_0, i32 -1, i32 1, ptr null }], align 16

; Function Attrs: nounwind uwtable
define internal i32 @r_Suffix_Noun_Step2c1(ptr noundef %0) #0 {
  %2 = alloca i32, align 4
  %3 = alloca ptr, align 8
  %4 = alloca i32, align 4
  %5 = alloca i32, align 4
  store ptr %0, ptr %3, align 8
  %6 = load ptr, ptr %3, align 8
  %7 = getelementptr inbounds nuw %struct.SN_env, ptr %6, i32 0, i32 1
  %8 = load i32, ptr %7, align 8
  %9 = load ptr, ptr %3, align 8
  %10 = getelementptr inbounds nuw %struct.SN_env, ptr %9, i32 0, i32 5
  store i32 %8, ptr %10, align 8
  %11 = load ptr, ptr %3, align 8
  %12 = getelementptr inbounds nuw %struct.SN_env, ptr %11, i32 0, i32 1
  %13 = load i32, ptr %12, align 8
  %14 = sub i32 %13, 1
  %15 = load ptr, ptr %3, align 8
  %16 = getelementptr inbounds nuw %struct.SN_env, ptr %15, i32 0, i32 3
  %17 = load i32, ptr %16, align 8
  %18 = icmp sle i32 %14, %17
  br i1 %18, label %32, label %19

19:                                               ; preds = %1
  %20 = load ptr, ptr %3, align 8
  %21 = getelementptr inbounds nuw %struct.SN_env, ptr %20, i32 0, i32 0
  %22 = load ptr, ptr %21, align 8
  %23 = load ptr, ptr %3, align 8
  %24 = getelementptr inbounds nuw %struct.SN_env, ptr %23, i32 0, i32 1
  %25 = load i32, ptr %24, align 8
  %26 = sub i32 %25, 1
  %27 = sext i32 %26 to i64
  %28 = getelementptr inbounds i8, ptr %22, i64 %27
  %29 = load i8, ptr %28, align 1
  %30 = zext i8 %29 to i32
  %31 = icmp ne i32 %30, 170
  br i1 %31, label %32, label %33

32:                                               ; preds = %19, %1
  store i32 0, ptr %2, align 4
  br label %61

33:                                               ; preds = %19
  %34 = load ptr, ptr %3, align 8
  %35 = call i32 @find_among_b(ptr noundef %34, ptr noundef @a_14, i32 noundef 1)
  %36 = icmp ne i32 %35, 0
  br i1 %36, label %38, label %37

37:                                               ; preds = %33
  store i32 0, ptr %2, align 4
  br label %61

38:                                               ; preds = %33
  %39 = load ptr, ptr %3, align 8
  %40 = getelementptr inbounds nuw %struct.SN_env, ptr %39, i32 0, i32 1
  %41 = load i32, ptr %40, align 8
  %42 = load ptr, ptr %3, align 8
  %43 = getelementptr inbounds nuw %struct.SN_env, ptr %42, i32 0, i32 4
  store i32 %41, ptr %43, align 4
  %44 = load ptr, ptr %3, align 8
  %45 = getelementptr inbounds nuw %struct.SN_env, ptr %44, i32 0, i32 0
  %46 = load ptr, ptr %45, align 8
  %47 = call i32 @len_utf8(ptr noundef %46)
  %48 = icmp sge i32 %47, 4
  br i1 %48, label %50, label %49

49:                                               ; preds = %38
  store i32 0, ptr %2, align 4
  br label %61

50:                                               ; preds = %38
  call void @llvm.lifetime.start.p0(i64 4, ptr %4) #3
  %51 = load ptr, ptr %3, align 8
  %52 = call i32 @slice_del(ptr noundef %51)
  store i32 %52, ptr %4, align 4
  %53 = load i32, ptr %4, align 4
  %54 = icmp slt i32 %53, 0
  br i1 %54, label %55, label %57

55:                                               ; preds = %50
  %56 = load i32, ptr %4, align 4
  store i32 %56, ptr %2, align 4
  store i32 1, ptr %5, align 4
  br label %58

57:                                               ; preds = %50
  store i32 0, ptr %5, align 4
  br label %58

58:                                               ; preds = %57, %55
  call void @llvm.lifetime.end.p0(i64 4, ptr %4) #3
  %59 = load i32, ptr %5, align 4
  switch i32 %59, label %63 [
    i32 0, label %60
    i32 1, label %61
  ]

60:                                               ; preds = %58
  store i32 1, ptr %2, align 4
  br label %61

61:                                               ; preds = %60, %58, %49, %37, %32
  %62 = load i32, ptr %2, align 4
  ret i32 %62

63:                                               ; preds = %58
  unreachable
}