; Function Attrs: nounwind uwtable
define internal fastcc i32 @r_Suffix_Noun_Step2c1(ptr noundef initializes((24, 28)) %0) unnamed_addr #0 {
  %2 = getelementptr inbounds nuw i8, ptr %0, i64 8
  %3 = load i32, ptr %2, align 8
  %4 = getelementptr inbounds nuw i8, ptr %0, i64 24
  store i32 %3, ptr %4, align 8
  %5 = add i32 %3, -1
  %6 = getelementptr inbounds nuw i8, ptr %0, i64 16
  %7 = load i32, ptr %6, align 8
  %.not = icmp sgt i32 %5, %7
  br i1 %.not, label %8, label %24

8:                                                ; preds = %1
  %9 = load ptr, ptr %0, align 8
  %10 = sext i32 %5 to i64
  %11 = getelementptr inbounds i8, ptr %9, i64 %10
  %12 = load i8, ptr %11, align 1
  %.not16 = icmp eq i8 %12, -86
  br i1 %.not16, label %13, label %24

13:                                               ; preds = %8
  %14 = tail call i32 @find_among_b(ptr noundef nonnull %0, ptr noundef nonnull @a_14, i32 noundef 1) #2
  %.not17 = icmp eq i32 %14, 0
  br i1 %.not17, label %24, label %15

15:                                               ; preds = %13
  %16 = load i32, ptr %2, align 8
  %17 = getelementptr inbounds nuw i8, ptr %0, i64 20
  store i32 %16, ptr %17, align 4
  %18 = load ptr, ptr %0, align 8
  %19 = tail call i32 @len_utf8(ptr noundef %18) #2
  %20 = icmp sgt i32 %19, 3
  br i1 %20, label %21, label %24

21:                                               ; preds = %15
  %22 = tail call i32 @slice_del(ptr noundef nonnull %0) #2
  %23 = icmp sgt i32 %22, -1
  %spec.select = select i1 %23, i32 1, i32 %22
  br label %24

24:                                               ; preds = %21, %15, %13, %1, %8
  %.014 = phi i32 [ 0, %8 ], [ 0, %1 ], [ 0, %13 ], [ 0, %15 ], [ %spec.select, %21 ]
  ret i32 %.014
}